0001e484 t .divsi3_skip_div0_test
0001e3b4 t .udivsi3_skip_div0_test
00020d78 T ___Unwind_Backtrace
00020d54 T ___Unwind_ForcedUnwind
00020ce8 T ___Unwind_RaiseException
00020d0c T ___Unwind_Resume
00020d30 T ___Unwind_Resume_or_Rethrow
0001e584 T __adddf3
00014b40 t __aeabi_atexit
0001eda0 T __aeabi_d2uiz
0001e584 T __aeabi_dadd
0001eb9c T __aeabi_ddiv
0001e930 T __aeabi_dmul
0001e578 T __aeabi_drsub
0001e580 T __aeabi_dsub
0001e87c T __aeabi_f2d
0001e854 T __aeabi_i2d
0001e47c T __aeabi_idiv
0001ee30 W __aeabi_idiv0
0001e558 T __aeabi_idivmod
0001e8d0 T __aeabi_l2d
0001ee30 W __aeabi_ldiv0
0001ee40 T __aeabi_lmul
0001e830 T __aeabi_ui2d
0001e3b4 T __aeabi_uidiv
0001e45c T __aeabi_uidivmod
0001e8bc T __aeabi_ul2d
0001edf4 T __aeabi_uldivmod
0002065c T __aeabi_unwind_cpp_pr0
00020654 W __aeabi_unwind_cpp_pr1
0002064c W __aeabi_unwind_cpp_pr2
         U __android_log_print
00029080 A __bss_start
00015118 T __cxa_allocate_dependent_exception
00014f10 T __cxa_allocate_exception
         U __cxa_atexit
00015660 T __cxa_bad_cast
000156a8 T __cxa_bad_typeid
00015938 T __cxa_begin_catch
00015500 T __cxa_begin_cleanup
000156f0 t __cxa_call_terminate
0001576c T __cxa_call_unexpected
0001e374 T __cxa_current_exception_type
0001e208 T __cxa_demangle
00015a10 T __cxa_end_catch
00015344 T __cxa_end_cleanup
         U __cxa_finalize
0001523c T __cxa_free_dependent_exception
00015034 T __cxa_free_exception
00015930 T __cxa_get_exception_ptr
00015cb4 T __cxa_get_globals
00015c6c T __cxa_get_globals_fast
0001698c T __cxa_guard_abort
000168e4 T __cxa_guard_acquire
000169cc T __cxa_guard_release
00016b88 T __cxa_pure_virtual
000167ec T __cxa_rethrow
0001674c T __cxa_throw
00015354 T __cxa_type_match
0001eb9c T __divdf3
000216a4 T __divdi3
0001e47c T __divsi3
00029000 d __dso_handle
         U __errno
00023904 r __exidx_end
000226c4 r __exidx_start
0001e87c T __extendsfdf2
0001eda0 T __fixunsdfsi
0001e8d0 T __floatdidf
0001e854 T __floatsidf
0001e8bc T __floatundidf
0001e830 T __floatunsidf
00021428 T __gcc_personality_v0
0001e348 T __gcclibcxx_demangle_callback
000155b4 T __gnu_end_cleanup
0001ee88 T __gnu_ldivmod_helper
0001e3a0 T __gnu_thumb1_case_uqi
0001eec4 T __gnu_uldivmod_helper
00020b34 T __gnu_Unwind_Backtrace
00020df4 T __gnu_unwind_execute
         w __gnu_Unwind_Find_exidx
00020a68 T __gnu_Unwind_ForcedUnwind
00021188 T __gnu_unwind_frame
000202b8 t __gnu_unwind_pr_common
000209c4 T __gnu_Unwind_RaiseException
00020c08 T __gnu_Unwind_Restore_VFP
00020c18 T __gnu_Unwind_Restore_VFP_D
00020c28 T __gnu_Unwind_Restore_VFP_D_16_to_31
00020cc0 T __gnu_Unwind_Restore_WMMXC
00020c38 T __gnu_Unwind_Restore_WMMXD
00020a84 T __gnu_Unwind_Resume
00020af0 T __gnu_Unwind_Resume_or_Rethrow
00020c10 T __gnu_Unwind_Save_VFP
00020c20 T __gnu_Unwind_Save_VFP_D
00020c30 T __gnu_Unwind_Save_VFP_D_16_to_31
00020cd4 T __gnu_Unwind_Save_WMMXC
00020c7c T __gnu_Unwind_Save_WMMXD
00016098 t __gxx_personality_v0
0001e930 T __muldf3
0001ee40 T __muldi3
0002e614 b __new_handler
0000a254 t __on_dlclose
00020bf4 T __restore_core_regs
         U __sF
         U __stack_chk_fail
         U __stack_chk_guard
0001e580 T __subdf3
0001f8bc t __sync_add_and_fetch_1
0001f630 t __sync_add_and_fetch_2
0001f4dc t __sync_add_and_fetch_4
0001f9e8 t __sync_and_and_fetch_1
0001f774 t __sync_and_and_fetch_2
0001f584 t __sync_and_and_fetch_4
0001fc74 t __sync_bool_compare_and_swap_1
0001fc58 t __sync_bool_compare_and_swap_2
0001fc2c t __sync_bool_compare_and_swap_4
0001f2b0 t __sync_fetch_and_add_1
0001f054 t __sync_fetch_and_add_2
0001ef00 t __sync_fetch_and_add_4
0001f3c4 t __sync_fetch_and_and_1
0001f180 t __sync_fetch_and_and_2
0001efa8 t __sync_fetch_and_and_4
0001f47c t __sync_fetch_and_nand_1
0001f248 t __sync_fetch_and_nand_2
0001f018 t __sync_fetch_and_nand_4
0001f368 t __sync_fetch_and_or_1
0001f11c t __sync_fetch_and_or_2
0001ef70 t __sync_fetch_and_or_4
0001f30c t __sync_fetch_and_sub_1
0001f0b8 t __sync_fetch_and_sub_2
0001ef38 t __sync_fetch_and_sub_4
0001f420 t __sync_fetch_and_xor_1
0001f1e4 t __sync_fetch_and_xor_2
0001efe0 t __sync_fetch_and_xor_4
0001fdf8 t __sync_lock_release_1
0001fdd8 t __sync_lock_release_2
0001fdb8 t __sync_lock_release_4
0001fd94 t __sync_lock_release_8
0001fd3c t __sync_lock_test_and_set_1
0001fcdc t __sync_lock_test_and_set_2
0001fca4 t __sync_lock_test_and_set_4
0001fab0 t __sync_nand_and_fetch_1
0001f84c t __sync_nand_and_fetch_2
0001f5f4 t __sync_nand_and_fetch_4
0001f984 t __sync_or_and_fetch_1
0001f708 t __sync_or_and_fetch_2
0001f54c t __sync_or_and_fetch_4
0001f920 t __sync_sub_and_fetch_1
0001f69c t __sync_sub_and_fetch_2
0001f514 t __sync_sub_and_fetch_4
0001fc90 t __sync_synchronize
0001fbc8 t __sync_val_compare_and_swap_1
0001fb5c t __sync_val_compare_and_swap_2
0001fb18 t __sync_val_compare_and_swap_4
0001fa4c t __sync_xor_and_fetch_1
0001f7e0 t __sync_xor_and_fetch_2
0001f5bc t __sync_xor_and_fetch_4
00021b28 T __udivdi3
0001e3b4 T __udivsi3
00010304 T __uuid_generate_random
0000ffe0 T __uuid_generate_time
         U _ctype_
00028c34 d _DYNAMIC
00029080 A _edata
0002e619 A _end
0000bbc8 t _GLOBAL__sub_I_AAtomizer.cpp
0000a628 t _GLOBAL__sub_I_ALooper.cpp
0001532c t _GLOBAL__sub_I_eh_alloc.cc
00015d44 t _GLOBAL__sub_I_eh_globals.cc
0000ff34 t _GLOBAL__sub_I_IPCAM.cpp
00011850 t _GLOBAL__sub_I_system_error.cc
00028eb0 d _GLOBAL_OFFSET_TABLE_
         U _tolower_tab_
00020d78 T _Unwind_Backtrace
00020b10 T _Unwind_Complete
00020b14 T _Unwind_DeleteException
00020d54 T _Unwind_ForcedUnwind
000209bc T _Unwind_GetCFA
0002122c T _Unwind_GetDataRelBase
00020220 t _Unwind_GetGR
000211f4 T _Unwind_GetLanguageSpecificData
000211c8 T _Unwind_GetRegionStart
00021234 T _Unwind_GetTextRelBase
00020ce8 T _Unwind_RaiseException
00020d0c T _Unwind_Resume
00020d30 T _Unwind_Resume_or_Rethrow
0002028c t _Unwind_SetGR
000201dc T _Unwind_VRS_Get
00020664 T _Unwind_VRS_Pop
00020248 T _Unwind_VRS_Set
0000b60c W _Z10Compare_LEIjjE7AStringRKT_RKT0_
0000f98a T _Z12decodeBase64RK7AString
0000fad0 T _Z12encodeBase64PKvjP7AString
0000c9a8 T _Z12MakePortPairPiS_
0000b5e0 T _Z12StringPrintfPKcz
0000c934 T _Z20bumpSocketBufferSizei
0000fc28 T _Z5startPv
00014dec T _ZdlPv
00014df8 T _ZdlPvj
000296dc b _ZGVZN12_GLOBAL__N_126__future_category_instanceEvE5__fec
0002e608 b _ZL10eh_globals
0000f960 t _ZL10encode6Bitj
0000a96c t _ZL12appendIndentP7AStringi
0000de44 t _ZL12MD5TransformPjPKh
00015da0 t _ZL12read_sleb128PKhPl
0002a5fc b _ZL14emergency_used
000296f0 b _ZL15dependents_used
00015bfc t _ZL15eh_globals_dtorPv
0002a600 b _ZL16emergency_buffer
000296f8 b _ZL17dependents_buffer
00015fc0 t _ZL17parse_lsda_headerP15_Unwind_ContextPKhP16lsda_header_info.constprop.1
0000bbf8 t _ZL18MakeSocketBlockingib
00015f48 t _ZL21base_of_encoded_valuehP15_Unwind_Context
00025818 r _ZL21ff_ue_golomb_vlc_code
000166f8 t _ZL23__gxx_exception_cleanup19_Unwind_Reason_CodeP21_Unwind_Control_Block
00015dec t _ZL28read_encoded_value_with_basehjPKhPj
0002e600 b _ZL4init
0000de1e t _ZL6EncodePhPjj
00029034 d _ZL7PADDING
00016620 T _ZN10__cxxabiv111__terminateEPFvvE
00016674 T _ZN10__cxxabiv112__unexpectedEPFvvE
00015ba8 T _ZN10__cxxabiv115__forced_unwindD0Ev
00015b3c T _ZN10__cxxabiv115__forced_unwindD1Ev
00015b3c T _ZN10__cxxabiv115__forced_unwindD2Ev
00014d18 T _ZN10__cxxabiv117__class_type_infoD0Ev
00014cf0 T _ZN10__cxxabiv117__class_type_infoD1Ev
00014cf0 T _ZN10__cxxabiv117__class_type_infoD2Ev
00016e84 T _ZN10__cxxabiv117__pbase_type_infoD0Ev
00016e5c T _ZN10__cxxabiv117__pbase_type_infoD1Ev
00016e5c T _ZN10__cxxabiv117__pbase_type_infoD2Ev
00015b8c T _ZN10__cxxabiv119__foreign_exceptionD0Ev
00015b54 T _ZN10__cxxabiv119__foreign_exceptionD1Ev
00015b54 T _ZN10__cxxabiv119__foreign_exceptionD2Ev
00016aec T _ZN10__cxxabiv119__pointer_type_infoD0Ev
00016ac4 T _ZN10__cxxabiv119__pointer_type_infoD1Ev
00016ac4 T _ZN10__cxxabiv119__pointer_type_infoD2Ev
0002907c D _ZN10__cxxabiv119__terminate_handlerE
00016bd0 T _ZN10__cxxabiv120__si_class_type_infoD0Ev
00016ba8 T _ZN10__cxxabiv120__si_class_type_infoD1Ev
00016ba8 T _ZN10__cxxabiv120__si_class_type_infoD2Ev
00029078 D _ZN10__cxxabiv120__unexpected_handlerE
000168c8 T _ZN10__cxxabiv123__fundamental_type_infoD0Ev
000168a0 T _ZN10__cxxabiv123__fundamental_type_infoD1Ev
000168a0 T _ZN10__cxxabiv123__fundamental_type_infoD2Ev
0000eddc T _ZN10ARTPSource10inputQPushERK2spI7ABufferE
0000ed40 T _ZN10ARTPSource10outputQPopER2spI7ABufferE
0000ed2a T _ZN10ARTPSource11outputQPushERK2spI7ABufferE
0000e894 T _ZN10ARTPSource9inputQPopER2spI7ABufferE
0000ee72 T _ZN10ARTPSourceC1Ejj
0000ee72 T _ZN10ARTPSourceC2Ejj
0000e79c T _ZN10ARTPSourceD1Ev
0000e79c T _ZN10ARTPSourceD2Ev
0000f6dc W _ZN10StreamInfoC1ERKS_
0000f6dc W _ZN10StreamInfoC2ERKS_
0002a5f8 b _ZN12_GLOBAL__N_115emergency_mutexE
000120ec t _ZN12_GLOBAL__N_121future_error_categoryD0Ev
000120c4 t _ZN12_GLOBAL__N_121future_error_categoryD1Ev
000120c4 t _ZN12_GLOBAL__N_121future_error_categoryD2Ev
00011734 t _ZN12_GLOBAL__N_121system_error_categoryD0Ev
000116a4 t _ZN12_GLOBAL__N_121system_error_categoryD1Ev
000116a4 t _ZN12_GLOBAL__N_121system_error_categoryD2Ev
0001175c t _ZN12_GLOBAL__N_122generic_error_categoryD0Ev
000116bc t _ZN12_GLOBAL__N_122generic_error_categoryD1Ev
000116bc t _ZN12_GLOBAL__N_122generic_error_categoryD2Ev
000296d0 b _ZN12_GLOBAL__N_1L24system_category_instanceE
000296d4 b _ZN12_GLOBAL__N_1L25generic_category_instanceE
0000a6ce T _ZN13ALooperRoster10findLooperEi
0000a790 T _ZN13ALooperRoster11postMessageERK2spI8AMessageEx
0000a704 T _ZN13ALooperRoster14deliverMessageERK2spI8AMessageE
0000a918 T _ZN13ALooperRoster15registerHandlerEP7ALooperP8AHandler
0000a824 T _ZN13ALooperRoster17unregisterHandlerEi
0000a658 T _ZN13ALooperRosterC1Ev
0000a658 T _ZN13ALooperRosterC2Ev
0000a612 W _ZN13ALooperRosterD1Ev
0000a612 W _ZN13ALooperRosterD2Ev
0000d98c T _ZN13MyRTSPHandler10NewSessionEPv
0000cb90 T _ZN13MyRTSPHandler10StopServerEv
0000cb78 T _ZN13MyRTSPHandler11StartServerEv
0000da50 T _ZN13MyRTSPHandler12ServerThreadEPv
0000cd9c T _ZN13MyRTSPHandler14isAuthenticateEPKcR7AStringS1_
0000d768 T _ZN13MyRTSPHandler14onCloseSessionERK2spI8AMessageE
0000d05c T _ZN13MyRTSPHandler16onReceiveRequestERK2spI8AMessageE
0000cb70 T _ZN13MyRTSPHandler16setRTPConnectionEP14ARTPConnection
0000d818 T _ZN13MyRTSPHandler17onMessageReceivedERK2spI8AMessageE
0000ce2c T _ZN13MyRTSPHandler27sendUnauthenticatedResponseEP15ARTSPConnectioni
0000cf3c T _ZN13MyRTSPHandler7makeSDPEPhjS0_j
0000cb98 T _ZN13MyRTSPHandler9getDigestEPKcS1_P7AString
0000cc60 T _ZN13MyRTSPHandler9getHostIPEPc
0000cc78 T _ZN13MyRTSPHandlerC1Ev
0000cc78 T _ZN13MyRTSPHandlerC2Ev
0000d8c8 T _ZN13MyRTSPHandlerD0Ev
0000d888 T _ZN13MyRTSPHandlerD1Ev
0000d888 T _ZN13MyRTSPHandlerD2Ev
0000f660 T _ZN14ARTPConnection10threadloopEPv
0000ef8c T _ZN14ARTPConnection11isFirstNaluEPhj
0000f710 T _ZN14ARTPConnection11onAddStreamERK2spI8AMessageE
0000f460 T _ZN14ARTPConnection12removeStreamEi
0000f05c T _ZN14ARTPConnection13GetAnnexbNALUEPNS_6NALU_tERK2spI7ABufferE
0000ef08 T _ZN14ARTPConnection13makeRTPHeaderEPNS_9RTPHeaderEPh
0000eff8 T _ZN14ARTPConnection13sendRTPPacketEPKhj
0000f574 T _ZN14ARTPConnection14onRemoveStreamERK2spI8AMessageE
00025a18 R _ZN14ARTPConnection16kSelectTimeoutUsE
0000f91c T _ZN14ARTPConnection17onMessageReceivedERK2spI8AMessageE
0000f088 T _ZN14ARTPConnection4dumpEPNS_6NALU_tE
0000f4c4 T _ZN14ARTPConnection9addStreamEiijPKci
0000f458 T _ZN14ARTPConnection9getStatusEv
0000f0b0 T _ZN14ARTPConnection9RTPPacketE2spI7ABufferE
0000eff4 T _ZN14ARTPConnection9setSourceEP10ARTPSource
0000eec4 T _ZN14ARTPConnectionC1Ev
0000eec4 T _ZN14ARTPConnectionC2Ev
0000f64c T _ZN14ARTPConnectionD0Ev
0000f610 T _ZN14ARTPConnectionD1Ev
0000f610 T _ZN14ARTPConnectionD2Ev
0000c188 T _ZN15ARTSPConnection10disconnectERK2spI8AMessageE
0000c2e4 T _ZN15ARTSPConnection11receiveLineEP7AString
0000c0a0 T _ZN15ARTSPConnection11StartListenEiij
0000bfbc T _ZN15ARTSPConnection12onDisconnectERK2spI8AMessageE
0000c13c T _ZN15ARTSPConnection12sendResponseEPKc
0000c604 T _ZN15ARTSPConnection14onSendResponseERK2spI8AMessageE
00025798 R _ZN15ARTSPConnection16kSelectTimeoutUsE
0000c540 T _ZN15ARTSPConnection16onReceiveRequestEv
0000c0f4 T _ZN15ARTSPConnection17observeBinaryDataERK2spI8AMessageE
0000c7d8 T _ZN15ARTSPConnection17onMessageReceivedERK2spI8AMessageE
0000c34c T _ZN15ARTSPConnection18receiveRTSPRequestEv
0000bd74 T _ZN15ARTSPConnection20onCompleteConnectionERK2spI8AMessageE
0000c05c T _ZN15ARTSPConnection23postReceiveRequestEventEv
0000c1d0 T _ZN15ARTSPConnection7receiveEPvj
0000bd46 T _ZN15ARTSPConnection8getNonceEv
0000bd3c T _ZN15ARTSPConnection8setNonceEPKc
0000bcd8 T _ZN15ARTSPConnectionC1Ev
0000bcd8 T _ZN15ARTSPConnectionC2Ev
0000c920 T _ZN15ARTSPConnectionD0Ev
0000c8ac T _ZN15ARTSPConnectionD1Ev
0000c8ac T _ZN15ARTSPConnectionD2Ev
00015c38 t _ZN17__eh_globals_initD1Ev
00015c38 t _ZN17__eh_globals_initD2Ev
0000b036 W _ZN2spI7ABufferEaSEPS0_
0000e7d4 W _ZN2spI7ABufferEaSERKS1_
0000e7b2 W _ZN2spI7ABufferED1Ev
0000e7b2 W _ZN2spI7ABufferED2Ev
0000afec W _ZN2spI8AMessageEaSEPS0_
0000a42e W _ZN2spI8AMessageEaSERKS1_
0000c044 W _ZN2spI8AMessageEC1EPS0_
0000c044 W _ZN2spI8AMessageEC2EPS0_
0000bd50 W _ZN2spI8AMessageED1Ev
0000bd50 W _ZN2spI8AMessageED2Ev
0000ddf8 T _ZN7ABuffer18setFarewellMessageEP8AMessage
0000ddfc T _ZN7ABuffer4metaEv
0000dd34 T _ZN7ABuffer8setRangeEjj
0000dcdc T _ZN7ABufferC1Ej
0000dd10 T _ZN7ABufferC1EPvj
0000dcdc T _ZN7ABufferC2Ej
0000dd10 T _ZN7ABufferC2EPvj
0000dcc8 T _ZN7ABufferD0Ev
0000dc8c T _ZN7ABufferD1Ev
0000dc8c T _ZN7ABufferD2Ev
0000a460 T _ZN7ALooper10threadloopEv
0000a2fc T _ZN7ALooper15registerHandlerEP8AHandler
0000a314 T _ZN7ALooper17unregisterHandlerEi
0000a520 T _ZN7ALooper4loopEPv
0000a570 T _ZN7ALooper4postERK2spI8AMessageEx
0000a3a8 T _ZN7ALooper4stopEv
0000a3b2 W _ZN7ALooper5EventD1Ev
0000a3b2 W _ZN7ALooper5EventD2Ev
0000a328 T _ZN7ALooper5startEv
0000a2e0 T _ZN7ALooper7setNameEPKc
0000a280 T _ZN7ALooper8GetNowUsEv
0000a2b0 T _ZN7ALooperC1Ev
0000a2b0 T _ZN7ALooperC2Ev
0000a41c T _ZN7ALooperD0Ev
0000a3d4 T _ZN7ALooperD1Ev
0000a3d4 T _ZN7ALooperD2Ev
0000b120 T _ZN7AString11makeMutableEv
00029004 D _ZN7AString12kEmptyStringE
0000b140 T _ZN7AString4trimEv
0000b0ac T _ZN7AString5clearEv
0000b6a4 T _ZN7AString5eraseEjj
0000b2c6 T _ZN7AString5setToEPKc
0000b214 T _ZN7AString5setToEPKcj
0000b22c T _ZN7AString5setToERKS_jj
0000b4f8 T _ZN7AString6appendEd
0000b4b0 T _ZN7AString6appendEf
0000b348 T _ZN7AString6appendEi
0000b384 T _ZN7AString6appendEj
0000b3c0 T _ZN7AString6appendEl
0000b3fc T _ZN7AString6appendEm
0000b1fc T _ZN7AString6appendEPKc
0000b19c T _ZN7AString6appendEPKcj
0000b534 T _ZN7AString6appendEPv
0000b30e T _ZN7AString6appendERKS_
0000b32e T _ZN7AString6appendERKS_jj
0000b438 T _ZN7AString6appendEx
0000b474 T _ZN7AString6appendEy
0000b76c T _ZN7AString6insertEPKcjj
0000b850 T _ZN7AString6insertERKS_j
0000b594 T _ZN7AString7tolowerEv
0000b264 T _ZN7AStringaSERKS_
0000b2de T _ZN7AStringC1EPKc
0000b2f6 T _ZN7AStringC1EPKcj
0000b29e T _ZN7AStringC1ERKS_
0000b284 T _ZN7AStringC1ERKS_jj
0000b080 T _ZN7AStringC1Ev
0000b2de T _ZN7AStringC2EPKc
0000b2f6 T _ZN7AStringC2EPKcj
0000b29e T _ZN7AStringC2ERKS_
0000b284 T _ZN7AStringC2ERKS_jj
0000b080 T _ZN7AStringC2Ev
0000b0d8 T _ZN7AStringD1Ev
0000b0d8 T _ZN7AStringD2Ev
0000e798 T _ZN7MyQueue15getEmptyBufSizeEv
0000e860 T _ZN7MyQueue3popER2spI7ABufferE
0000ecfa T _ZN7MyQueue4pushERK2spI7ABufferE
0000e794 T _ZN7MyQueue8getQSizeEv
0000edf2 T _ZN7MyQueueC1Ejj
0000edf2 T _ZN7MyQueueC2Ejj
0000e9f2 T _ZN7MyQueueD1Ev
0000e9f2 T _ZN7MyQueueD2Ev
0000a264 T _ZN8AHandler6looperEv
0000ac70 T _ZN8AMessage10setMessageEPKcRK2spIS_E
0000ac18 T _ZN8AMessage10setPointerEPKcPv
0000aaa4 T _ZN8AMessage12allocateItemEPKc
0000acb8 T _ZN8AMessage4postEx
0000aa50 T _ZN8AMessage5clearEv
0000ab9e T _ZN8AMessage7setSizeEPKcj
0000aa24 T _ZN8AMessage7setWhatEj
0000aa34 T _ZN8AMessage8freeItemEPNS_4ItemE
0000abc4 T _ZN8AMessage8setFloatEPKcf
0000ab4a T _ZN8AMessage8setInt32EPKci
0000ab70 T _ZN8AMessage8setInt64EPKcx
0000ac86 T _ZN8AMessage9setBufferEPKcRK2spI7ABufferE
0000abea T _ZN8AMessage9setDoubleEPKcd
0000ac3e T _ZN8AMessage9setStringEPKcS1_l
0000aa2c T _ZN8AMessage9setTargetEi
0000aa04 T _ZN8AMessageC1Eji
0000aa04 T _ZN8AMessageC2Eji
0000aa90 T _ZN8AMessageD0Ev
0000aa74 T _ZN8AMessageD1Ev
0000aa74 T _ZN8AMessageD2Ev
00014e74 t _ZN9__gnu_cxx13__scoped_lockC2ERNS_7__mutexE.part.0
00014eb0 t _ZN9__gnu_cxx24__concurrence_lock_errorD0Ev
00014e24 t _ZN9__gnu_cxx24__concurrence_lock_errorD1Ev
00014e24 t _ZN9__gnu_cxx24__concurrence_lock_errorD2Ev
00014ee0 t _ZN9__gnu_cxx26__concurrence_unlock_errorD0Ev
00014e4c t _ZN9__gnu_cxx26__concurrence_unlock_errorD1Ev
00014e4c t _ZN9__gnu_cxx26__concurrence_unlock_errorD2Ev
00016f34 T _ZN9__gnu_cxx27__verbose_terminate_handlerEv
00014b10 t _ZN9__gnu_cxxeqIPcSsEEbRKNS_17__normal_iteratorIT_T0_EES7_
00014b28 t _ZN9__gnu_cxxeqIPKcSsEEbRKNS_17__normal_iteratorIT_T0_EES8_
0000b8c0 T _ZN9AAtomizer4HashEPKc
0000b8fa T _ZN9AAtomizer7atomizeEPKc
0000b97c T _ZN9AAtomizer7AtomizeEPKc
000290a0 B _ZN9AAtomizer9gAtomizerE
0000bb78 T _ZN9AAtomizerC1Ev
0000bb78 T _ZN9AAtomizerC2Ev
0000b896 W _ZN9AAtomizerD1Ev
0000b896 W _ZN9AAtomizerD2Ev
00014da0 T _ZNK10__cxxabiv117__class_type_info10__do_catchEPKSt9type_infoPPvj
00014cbc T _ZNK10__cxxabiv117__class_type_info11__do_upcastEPKS0_PKvRNS0_15__upcast_resultE
00014c4c T _ZNK10__cxxabiv117__class_type_info11__do_upcastEPKS0_PPv
00014d34 T _ZNK10__cxxabiv117__class_type_info12__do_dyncastEiNS0_10__sub_kindEPKS0_PKvS3_S5_RNS0_16__dyncast_resultE
00014ca8 T _ZNK10__cxxabiv117__class_type_info20__do_find_public_srcEiPKvPKS0_S2_
00016ea0 T _ZNK10__cxxabiv117__pbase_type_info10__do_catchEPKSt9type_infoPPvj
00016e3c t _ZNK10__cxxabiv117__pbase_type_info15__pointer_catchEPKS0_PPvj
00016abc T _ZNK10__cxxabiv119__pointer_type_info14__is_pointer_pEv
00016b08 T _ZNK10__cxxabiv119__pointer_type_info15__pointer_catchEPKNS_17__pbase_type_infoEPPvj
00016bec T _ZNK10__cxxabiv120__si_class_type_info11__do_upcastEPKNS_17__class_type_infoEPKvRNS1_15__upcast_resultE
00016c34 T _ZNK10__cxxabiv120__si_class_type_info12__do_dyncastEiNS_17__class_type_info10__sub_kindEPKS1_PKvS4_S6_RNS1_16__dyncast_resultE
00016d04 T _ZNK10__cxxabiv120__si_class_type_info20__do_find_public_srcEiPKvPKNS_17__class_type_infoES2_
00012070 t _ZNK12_GLOBAL__N_121future_error_category4nameEv
0001219c t _ZNK12_GLOBAL__N_121future_error_category7messageEi
000115e8 t _ZNK12_GLOBAL__N_121system_error_category4nameEv
00011704 t _ZNK12_GLOBAL__N_121system_error_category7messageEi
000115d8 t _ZNK12_GLOBAL__N_122generic_error_category4nameEv
000116d4 t _ZNK12_GLOBAL__N_122generic_error_category7messageEi
0000b5c4 T _ZNK7AString10startsWithEPKc
0000b640 T _ZNK7AString4findEPKcj
0000b0e4 T _ZNK7AString4hashEv
0000b09c T _ZNK7AString4sizeEv
0000b0a0 T _ZNK7AString5c_strEv
0000b0a4 T _ZNK7AString5emptyEv
0000b570 T _ZNK7AString7compareERKS_
0000b102 T _ZNK7AStringeqERKS_
0000b57c T _ZNK7AStringgtERKS_
0000b58a T _ZNK7AStringltERKS_
0000b066 T _ZNK8AMessage10findBufferEPKcP2spI7ABufferE
0000abfe T _ZNK8AMessage10findDoubleEPKcPd
0000ac9c T _ZNK8AMessage10findStringEPKcP7AString
0000ad6c T _ZNK8AMessage11debugStringEi
0000b01c T _ZNK8AMessage11findMessageEPKcP2spIS_E
0000ac28 T _ZNK8AMessage11findPointerEPKcPPv
0000acfc T _ZNK8AMessage3dupEv
0000aa28 T _ZNK8AMessage4whatEv
0000aa30 T _ZNK8AMessage6targetEv
0000ab10 T _ZNK8AMessage8findItemEPKcNS_4TypeE
0000abae T _ZNK8AMessage8findSizeEPKcPj
0000abd4 T _ZNK8AMessage9findFloatEPKcPf
0000ab5a T _ZNK8AMessage9findInt32EPKcPi
0000ab84 T _ZNK8AMessage9findInt64EPKcPx
00014e04 t _ZNK9__gnu_cxx24__concurrence_lock_error4whatEv
00014e14 t _ZNK9__gnu_cxx26__concurrence_unlock_error4whatEv
000123cc t _ZNKSs11_M_disjunctEPKc
00012a08 t _ZNKSs12find_last_ofEcj
000129d8 t _ZNKSs12find_last_ofEPKcj
00012968 t _ZNKSs12find_last_ofEPKcjj
000129cc t _ZNKSs12find_last_ofERKSsj
00012964 t _ZNKSs13find_first_ofEcj
00012934 t _ZNKSs13find_first_ofEPKcj
000128d4 t _ZNKSs13find_first_ofEPKcjj
00012928 t _ZNKSs13find_first_ofERKSsj
000126d4 t _ZNKSs13get_allocatorEv
0001238c t _ZNKSs15_M_check_lengthEjjPKc
00012b84 t _ZNKSs16find_last_not_ofEcj
00012b54 t _ZNKSs16find_last_not_ofEPKcj
00012ae8 t _ZNKSs16find_last_not_ofEPKcjj
00012b48 t _ZNKSs16find_last_not_ofERKSsj
00012aa4 t _ZNKSs17find_first_not_ofEcj
00012a74 t _ZNKSs17find_first_not_ofEPKcj
00012a0c t _ZNKSs17find_first_not_ofEPKcjj
00012a68 t _ZNKSs17find_first_not_ofERKSsj
000125b4 t _ZNKSs2atEj
0001250c t _ZNKSs3endEv
00012dfc t _ZNKSs4_Rep12_M_is_leakedEv
00012e08 t _ZNKSs4_Rep12_M_is_sharedEv
000125e8 t _ZNKSs4backEv
00012544 t _ZNKSs4cendEv
000125fc t _ZNKSs4copyEPcjj
0001231c t _ZNKSs4dataEv
000127b8 t _ZNKSs4findEcj
00012788 t _ZNKSs4findEPKcj
000126d8 t _ZNKSs4findEPKcjj
0001277c t _ZNKSs4findERKSsj
00012530 t _ZNKSs4rendEv
00012574 t _ZNKSs4sizeEv
00012504 t _ZNKSs5beginEv
000126cc t _ZNKSs5c_strEv
00012568 t _ZNKSs5crendEv
00012594 t _ZNKSs5emptyEv
000125e0 t _ZNKSs5frontEv
00012888 t _ZNKSs5rfindEcj
00012858 t _ZNKSs5rfindEPKcj
000127ec t _ZNKSs5rfindEPKcjj
0001284c t _ZNKSs5rfindERKSsj
00012344 t _ZNKSs6_M_repEv
0001253c t _ZNKSs6cbeginEv
00012324 t _ZNKSs6lengthEv
0001251c t _ZNKSs6rbeginEv
000145cc t _ZNKSs6substrEjj
00012330 t _ZNKSs7_M_dataEv
00012358 t _ZNKSs7_M_iendEv
00012d24 t _ZNKSs7compareEjjPKc
00012d8c t _ZNKSs7compareEjjPKcj
00012c00 t _ZNKSs7compareEjjRKSs
00012c5c t _ZNKSs7compareEjjRKSsjj
00012ce4 t _ZNKSs7compareEPKc
00012bd0 t _ZNKSs7compareERKSs
00012554 t _ZNKSs7crbeginEv
00012368 t _ZNKSs8_M_checkEjPKc
000123b4 t _ZNKSs8_M_limitEjj
00012588 t _ZNKSs8capacityEv
00012580 t _ZNKSs8max_sizeEv
00012350 t _ZNKSs9_M_ibeginEv
000125a8 t _ZNKSsixEj
00014bf8 T _ZNKSt10bad_typeid4whatEv
00011828 t _ZNKSt10error_code23default_error_conditionEv
0001114c t _ZNKSt11logic_error4whatEv
0001211c t _ZNKSt12future_error4whatEv
00015b7c T _ZNKSt13bad_exception4whatEv
00011154 t _ZNKSt13runtime_error4whatEv
0001161c t _ZNKSt14error_category10equivalentEiRKSt15error_condition
0001167c t _ZNKSt14error_category10equivalentERKSt10error_codei
00011610 t _ZNKSt14error_category23default_error_conditionEi
0000e806 W _ZNKSt5dequeI2spI7ABufferESaIS2_EE4sizeEv
0000ba30 W _ZNKSt6vectorISt4listI7AStringSaIS1_EESaIS3_EE12_M_check_lenEjPKc
00014ba4 T _ZNKSt8bad_cast4whatEv
00010f48 t _ZNKSt8ios_base7failure4whatEv
00014b50 T _ZNKSt9bad_alloc4whatEv
00015b6c T _ZNKSt9exception4whatEv
00016e1c t _ZNKSt9type_info10__do_catchEPKS_PPvj
00016d90 t _ZNKSt9type_info11__do_upcastEPKN10__cxxabiv117__class_type_infoEPPv
00016d80 t _ZNKSt9type_info14__is_pointer_pEv
00016d88 t _ZNKSt9type_info15__is_function_pEv
00016dc0 t _ZNKSt9type_infoeqERKS_
000124b4 t _ZNSs10_S_compareEjj
00012de4 t _ZNSs12_Alloc_hiderC1EPcRKSaIcE
00012de4 t _ZNSs12_Alloc_hiderC2EPcRKSaIcE
000138b4 t _ZNSs12_M_leak_hardEv
00012ee8 t _ZNSs12_S_constructEjcRKSaIcE
00014374 t _ZNSs12_S_constructIN9__gnu_cxx17__normal_iteratorIPcSsEEEES2_T_S4_RKSaIcESt20forward_iterator_tag
00014424 t _ZNSs12_S_constructIPcEES0_T_S1_RKSaIcESt20forward_iterator_tag
00014600 t _ZNSs12_S_constructIPKcEEPcT_S3_RKSaIcESt20forward_iterator_tag
000124bc t _ZNSs12_S_empty_repEv
00012460 t _ZNSs13_S_copy_charsEPcN9__gnu_cxx17__normal_iteratorIPKcSsEES4_
00012444 t _ZNSs13_S_copy_charsEPcN9__gnu_cxx17__normal_iteratorIS_SsEES2_
00012498 t _ZNSs13_S_copy_charsEPcPKcS1_
0001247c t _ZNSs13_S_copy_charsEPcS_S_
000140c0 t _ZNSs13shrink_to_fitEv
000133dc t _ZNSs14_M_replace_auxEjjjc
000131b8 t _ZNSs15_M_replace_safeEjjPKcj
00012f68 t _ZNSs18_S_construct_aux_2EjcRKSaIcE
00013a60 t _ZNSs2atEj
0001399c t _ZNSs3endEv
00012fb4 t _ZNSs4_Rep10_M_destroyERKSaIcE
00012fe8 t _ZNSs4_Rep10_M_disposeERKSaIcE
00012fb8 t _ZNSs4_Rep10_M_disposeERKSaIcE.part.14
00013aa8 t _ZNSs4_Rep10_M_refcopyEv
00012e5c t _ZNSs4_Rep10_M_refdataEv
0002665c r _ZNSs4_Rep11_S_max_sizeE
00026658 r _ZNSs4_Rep11_S_terminalE
00012dec t _ZNSs4_Rep12_S_empty_repEv
00012e1c t _ZNSs4_Rep13_M_set_leakedEv
00012e28 t _ZNSs4_Rep15_M_set_sharableEv
000296e0 b _ZNSs4_Rep20_S_empty_rep_storageE
00012e34 t _ZNSs4_Rep26_M_set_length_and_sharableEj
00013b70 t _ZNSs4_Rep7_M_grabERKSaIcES2_
00013adc t _ZNSs4_Rep8_M_cloneERKSaIcEj
00012e64 t _ZNSs4_Rep9_S_createEjjRKSaIcE
00013944 t _ZNSs4backEv
00026660 r _ZNSs4nposE
000139f0 t _ZNSs4rendEv
00012670 t _ZNSs4swapERSs
000139c8 t _ZNSs5beginEv
000138a0 t _ZNSs5clearEv
00013640 t _ZNSs5eraseEjj
0001360c t _ZNSs5eraseEN9__gnu_cxx17__normal_iteratorIPcSsEE
000135cc t _ZNSs5eraseEN9__gnu_cxx17__normal_iteratorIPcSsEES2_
00013974 t _ZNSs5frontEv
00013cb0 t _ZNSs6appendEjc
00013ed8 t _ZNSs6appendEPKc
00013dcc t _ZNSs6appendEPKcj
00014014 t _ZNSs6appendERKSs
00013f40 t _ZNSs6appendERKSsjj
00013ec0 t _ZNSs6appendESt16initializer_listIcE
00013544 t _ZNSs6assignEjc
000126a4 t _ZNSs6assignEOSs
00013324 t _ZNSs6assignEPKc
00013218 t _ZNSs6assignEPKcj
000141bc t _ZNSs6assignERKSs
0001334c t _ZNSs6assignERKSsjj
0001330c t _ZNSs6assignESt16initializer_listIcE
000134fc t _ZNSs6insertEjjc
000137f8 t _ZNSs6insertEjPKc
00013684 t _ZNSs6insertEjPKcj
00013894 t _ZNSs6insertEjRKSs
00013828 t _ZNSs6insertEjRKSsjj
000134bc t _ZNSs6insertEN9__gnu_cxx17__normal_iteratorIPcSsEEc
00013570 t _ZNSs6insertEN9__gnu_cxx17__normal_iteratorIPcSsEEjc
0001386c t _ZNSs6insertEN9__gnu_cxx17__normal_iteratorIPcSsEESt16initializer_listIcE
00013a24 t _ZNSs6rbeginEv
00013dc4 t _ZNSs6resizeEj
00013d78 t _ZNSs6resizeEjc
000123f8 t _ZNSs7_M_copyEPcPKcj
00012338 t _ZNSs7_M_dataEPc
00013904 t _ZNSs7_M_leakEv
00012410 t _ZNSs7_M_moveEPcPKcj
0001347c t _ZNSs7replaceEjjjc
000149cc t _ZNSs7replaceEjjPKc
00014794 t _ZNSs7replaceEjjPKcj
00014a54 t _ZNSs7replaceEjjRKSs
00014a0c t _ZNSs7replaceEjjRKSsjj
00013458 t _ZNSs7replaceEN9__gnu_cxx17__normal_iteratorIPcSsEES2_jc
00014910 t _ZNSs7replaceEN9__gnu_cxx17__normal_iteratorIPcSsEES2_NS0_IPKcSsEES5_
00014a9c t _ZNSs7replaceEN9__gnu_cxx17__normal_iteratorIPcSsEES2_PKc
000149b0 t _ZNSs7replaceEN9__gnu_cxx17__normal_iteratorIPcSsEES2_PKcj
00014960 t _ZNSs7replaceEN9__gnu_cxx17__normal_iteratorIPcSsEES2_PKcS4_
00014ae0 t _ZNSs7replaceEN9__gnu_cxx17__normal_iteratorIPcSsEES2_RKSs
00014988 t _ZNSs7replaceEN9__gnu_cxx17__normal_iteratorIPcSsEES2_S1_S1_
00014938 t _ZNSs7replaceEN9__gnu_cxx17__normal_iteratorIPcSsEES2_S2_S2_
00014a74 t _ZNSs7replaceEN9__gnu_cxx17__normal_iteratorIPcSsEES2_St16initializer_listIcE
00013bbc t _ZNSs7reserveEj
00012428 t _ZNSs9_M_assignEPcjc
00013040 t _ZNSs9_M_mutateEjjj
00013c38 t _ZNSs9push_backEc
0001359c t _ZNSsaSEc
000126b8 t _ZNSsaSEOSs
000133b4 t _ZNSsaSEPKc
00014268 t _ZNSsaSERKSs
0001338c t _ZNSsaSESt16initializer_listIcE
00012f6c t _ZNSsC1EjcRKSaIcE
000124e4 t _ZNSsC1EOSs
0001476c t _ZNSsC1EPKcjRKSaIcE
0001472c t _ZNSsC1EPKcRKSaIcE
00012f90 t _ZNSsC1ERKSaIcE
00014154 t _ZNSsC1ERKSs
0001456c t _ZNSsC1ERKSsjj
00014514 t _ZNSsC1ERKSsjjRKSaIcE
000146f0 t _ZNSsC1ESt16initializer_listIcERKSaIcE
000124cc t _ZNSsC1Ev
000143fc t _ZNSsC1IN9__gnu_cxx17__normal_iteratorIPcSsEEEET_S4_RKSaIcE
000144ec t _ZNSsC1IPcEET_S1_RKSaIcE
000146c8 t _ZNSsC1IPKcEET_S2_RKSaIcE
00012f6c t _ZNSsC2EjcRKSaIcE
000124e4 t _ZNSsC2EOSs
0001476c t _ZNSsC2EPKcjRKSaIcE
0001472c t _ZNSsC2EPKcRKSaIcE
00012f90 t _ZNSsC2ERKSaIcE
00014154 t _ZNSsC2ERKSs
0001456c t _ZNSsC2ERKSsjj
00014514 t _ZNSsC2ERKSsjjRKSaIcE
000146f0 t _ZNSsC2ESt16initializer_listIcERKSaIcE
000124cc t _ZNSsC2Ev
000143fc t _ZNSsC2IN9__gnu_cxx17__normal_iteratorIPcSsEEEET_S4_RKSaIcE
000144ec t _ZNSsC2IPcEET_S1_RKSaIcE
000146c8 t _ZNSsC2IPKcEET_S2_RKSaIcE
00013000 t _ZNSsD1Ev
00013000 t _ZNSsD2Ev
00013918 t _ZNSsixEj
000140dc t _ZNSspLEc
00013f18 t _ZNSspLEPKc
000140bc t _ZNSspLERKSs
00013f00 t _ZNSspLESt16initializer_listIcE
00014c30 T _ZNSt10bad_typeidD0Ev
00014c08 T _ZNSt10bad_typeidD1Ev
00014c08 T _ZNSt10bad_typeidD2Ev
0000e8ca W _ZNSt11_Deque_baseI2spI7ABufferESaIS2_EE17_M_initialize_mapEj
00011458 t _ZNSt11logic_errorC1ERKSs
00011458 t _ZNSt11logic_errorC2ERKSs
0001143c t _ZNSt11logic_errorD0Ev
000112b8 t _ZNSt11logic_errorD1Ev
000112b8 t _ZNSt11logic_errorD2Ev
00011560 t _ZNSt11range_errorC1ERKSs
00011560 t _ZNSt11range_errorC2ERKSs
00011280 t _ZNSt11range_errorD0Ev
00011258 t _ZNSt11range_errorD1Ev
00011258 t _ZNSt11range_errorD2Ev
00011fcc t _ZNSt11regex_errorC1ENSt15regex_constants10error_typeE
00011fcc t _ZNSt11regex_errorC2ENSt15regex_constants10error_typeE
00011fb0 t _ZNSt11regex_errorD0Ev
00011f88 t _ZNSt11regex_errorD1Ev
00011f88 t _ZNSt11regex_errorD2Ev
0001148c t _ZNSt12domain_errorC1ERKSs
0001148c t _ZNSt12domain_errorC2ERKSs
00011420 t _ZNSt12domain_errorD0Ev
000113f8 t _ZNSt12domain_errorD1Ev
000113f8 t _ZNSt12domain_errorD2Ev
000120a8 t _ZNSt12future_errorD0Ev
00012080 t _ZNSt12future_errorD1Ev
00012080 t _ZNSt12future_errorD2Ev
000114dc t _ZNSt12length_errorC1ERKSs
000114dc t _ZNSt12length_errorC2ERKSs
00011398 t _ZNSt12length_errorD0Ev
00011370 t _ZNSt12length_errorD1Ev
00011370 t _ZNSt12length_errorD2Ev
00011504 t _ZNSt12out_of_rangeC1ERKSs
00011504 t _ZNSt12out_of_rangeC2ERKSs
00011354 t _ZNSt12out_of_rangeD0Ev
0001132c t _ZNSt12out_of_rangeD1Ev
0001132c t _ZNSt12out_of_rangeD2Ev
000117d4 t _ZNSt12system_errorD0Ev
000117ac t _ZNSt12system_errorD1Ev
000117ac t _ZNSt12system_errorD2Ev
00015bc4 T _ZNSt13bad_exceptionD0Ev
00015b14 T _ZNSt13bad_exceptionD1Ev
00015b14 T _ZNSt13bad_exceptionD2Ev
0001152c t _ZNSt13runtime_errorC1ERKSs
0001152c t _ZNSt13runtime_errorC2ERKSs
0001129c t _ZNSt13runtime_errorD0Ev
0001115c t _ZNSt13runtime_errorD1Ev
0001115c t _ZNSt13runtime_errorD2Ev
000117f0 t _ZNSt14error_categoryC1Ev
000117f0 t _ZNSt14error_categoryC2Ev
00011784 t _ZNSt14error_categoryD0Ev
000115f8 t _ZNSt14error_categoryD1Ev
000115f8 t _ZNSt14error_categoryD2Ev
00011588 t _ZNSt14overflow_errorC1ERKSs
00011588 t _ZNSt14overflow_errorC2ERKSs
0001123c t _ZNSt14overflow_errorD0Ev
00011214 t _ZNSt14overflow_errorD1Ev
00011214 t _ZNSt14overflow_errorD2Ev
000115b0 t _ZNSt15underflow_errorC1ERKSs
000115b0 t _ZNSt15underflow_errorC2ERKSs
000111f8 t _ZNSt15underflow_errorD0Ev
000111d0 t _ZNSt15underflow_errorD1Ev
000111d0 t _ZNSt15underflow_errorD2Ev
000114b4 t _ZNSt16invalid_argumentC1ERKSs
000114b4 t _ZNSt16invalid_argumentC2ERKSs
000113dc t _ZNSt16invalid_argumentD0Ev
000113b4 t _ZNSt16invalid_argumentD1Ev
000113b4 t _ZNSt16invalid_argumentD2Ev
00010f2c t _ZNSt17bad_function_callD0Ev
00010f04 t _ZNSt17bad_function_callD1Ev
00010f04 t _ZNSt17bad_function_callD2Ev
0000ea12 W _ZNSt20__uninitialized_copyILb0EE13__uninit_copyISt15_Deque_iteratorI2spI7ABufferERKS5_PS6_ES2_IS5_RS5_PS5_EEET0_T_SE_SD_
0000a682 W _ZNSt3mapIiN13ALooperRoster11HandlerInfoESt4lessIiESaISt4pairIKiS1_EEE4findERS5_
0000a6b4 W _ZNSt3mapIiN13ALooperRoster11HandlerInfoESt4lessIiESaISt4pairIKiS1_EEE5eraseESt17_Rb_tree_iteratorIS6_E
0000d028 W _ZNSt3mapIjP15ARTSPConnectionSt4lessIjESaISt4pairIKjS1_EEE4findERS5_
0000b8d6 W _ZNSt4listI7AStringSaIS0_EE9push_backERKS0_
0000b9b2 W _ZNSt4listI7AStringSaIS0_EEaSERKS2_
0000b990 W _ZNSt4listI7AStringSaIS0_EEC1ERKS2_
0000b990 W _ZNSt4listI7AStringSaIS0_EEC2ERKS2_
0000b874 W _ZNSt4listI7AStringSaIS0_EED1Ev
0000b874 W _ZNSt4listI7AStringSaIS0_EED2Ev
0000a538 W _ZNSt4listIN7ALooper5EventESaIS1_EE6insertESt14_List_iteratorIS1_ERKS1_
0000ec74 W _ZNSt5dequeI2spI7ABufferESaIS2_EE16_M_push_back_auxERKS2_
0000eb9c W _ZNSt5dequeI2spI7ABufferESaIS2_EE17_M_reallocate_mapEjb
0000e930 W _ZNSt5dequeI2spI7ABufferESaIS2_EE19_M_destroy_data_auxESt15_Deque_iteratorIS2_RS2_PS2_ES8_
0000e828 W _ZNSt5dequeI2spI7ABufferESaIS2_EE9pop_frontEv
0000ecca W _ZNSt5dequeI2spI7ABufferESaIS2_EE9push_backERKS2_
0000eb12 W _ZNSt5dequeI2spI7ABufferESaIS2_EEC1ERKS4_
0000eb12 W _ZNSt5dequeI2spI7ABufferESaIS2_EEC2ERKS4_
0000e99e W _ZNSt5dequeI2spI7ABufferESaIS2_EED1Ev
0000e99e W _ZNSt5dequeI2spI7ABufferESaIS2_EED2Ev
0000ba64 W _ZNSt6vectorISt4listI7AStringSaIS1_EESaIS3_EE13_M_insert_auxEN9__gnu_cxx17__normal_iteratorIPS3_S5_EERKS3_
00011100 t _ZNSt8__detail15_List_node_base10_M_reverseEv
000110c4 t _ZNSt8__detail15_List_node_base11_M_transferEPS0_S1_
0001102c t _ZNSt8__detail15_List_node_base4swapERS0_S1_
00011120 t _ZNSt8__detail15_List_node_base7_M_hookEPS0_
0001113c t _ZNSt8__detail15_List_node_base9_M_unhookEv
0000c884 W _ZNSt8_Rb_treeIiSt4pairIKi2spI8AMessageEESt10_Select1stIS5_ESt4lessIiESaIS5_EE8_M_eraseEPSt13_Rb_tree_nodeIS5_E
0000a858 W _ZNSt8_Rb_treeIiSt4pairIKiN13ALooperRoster11HandlerInfoEESt10_Select1stIS4_ESt4lessIiESaIS4_EE10_M_insert_EPKSt18_Rb_tree_node_baseSD_RKS4_
0000a8b4 W _ZNSt8_Rb_treeIiSt4pairIKiN13ALooperRoster11HandlerInfoEESt10_Select1stIS4_ESt4lessIiESaIS4_EE16_M_insert_uniqueERKS4_
0000a5f2 W _ZNSt8_Rb_treeIiSt4pairIKiN13ALooperRoster11HandlerInfoEESt10_Select1stIS4_ESt4lessIiESaIS4_EE8_M_eraseEPSt13_Rb_tree_nodeIS4_E
0000d8da W _ZNSt8_Rb_treeIjSt4pairIKjP15ARTSPConnectionESt10_Select1stIS4_ESt4lessIjESaIS4_EE10_M_insert_EPKSt18_Rb_tree_node_baseSD_RKS4_
0000d928 W _ZNSt8_Rb_treeIjSt4pairIKjP15ARTSPConnectionESt10_Select1stIS4_ESt4lessIjESaIS4_EE16_M_insert_uniqueERKS4_
0000d868 W _ZNSt8_Rb_treeIjSt4pairIKjP15ARTSPConnectionESt10_Select1stIS4_ESt4lessIjESaIS4_EE8_M_eraseEPSt13_Rb_tree_nodeIS4_E
00014bdc T _ZNSt8bad_castD0Ev
00014bb4 T _ZNSt8bad_castD1Ev
00014bb4 T _ZNSt8bad_castD2Ev
00010fe0 t _ZNSt8ios_base7failureC1ERKSs
00010fe0 t _ZNSt8ios_base7failureC2ERKSs
00010fc4 t _ZNSt8ios_base7failureD0Ev
00010f50 t _ZNSt8ios_base7failureD1Ev
00010f50 t _ZNSt8ios_base7failureD2Ev
00014b88 T _ZNSt9bad_allocD0Ev
00014b60 T _ZNSt9bad_allocD1Ev
00014b60 T _ZNSt9bad_allocD2Ev
00015be0 T _ZNSt9exceptionD0Ev
00015afc T _ZNSt9exceptionD1Ev
00015afc T _ZNSt9exceptionD2Ev
00016d98 t _ZNSt9type_infoD0Ev
00016d68 t _ZNSt9type_infoD1Ev
00016d68 t _ZNSt9type_infoD2Ev
00016a0c T _Znwj
00016684 T _ZSt10unexpectedv
000166a0 T _ZSt13set_terminatePFvvE
000166cc T _ZSt14set_unexpectedPFvvE
0001226c t _ZSt15future_categoryv
00016e20 T _ZSt15set_new_handlerPFvvE
00011808 t _ZSt15system_categoryv
000107d0 t _ZSt16__throw_bad_castv
00011818 t _ZSt16generic_categoryv
00010784 t _ZSt17__throw_bad_allocv
0001081c t _ZSt18__throw_bad_typeidv
00011a58 t _ZSt18_Rb_tree_decrementPKSt18_Rb_tree_node_base
000119dc t _ZSt18_Rb_tree_decrementPSt18_Rb_tree_node_base
000119d8 t _ZSt18_Rb_tree_incrementPKSt18_Rb_tree_node_base
00011964 t _ZSt18_Rb_tree_incrementPSt18_Rb_tree_node_base
00015ae4 T _ZSt18uncaught_exceptionv
00010ca0 t _ZSt19__throw_ios_failurePKc
00010868 t _ZSt19__throw_logic_errorPKc
00010b38 t _ZSt19__throw_range_errorPKc
00010eb8 t _ZSt19__throw_regex_errorNSt15regex_constants10error_typeE
000108e0 t _ZSt20__throw_domain_errorPKc
00010dbc t _ZSt20__throw_future_errori
000109d0 t _ZSt20__throw_length_errorPKc
00010a48 t _ZSt20__throw_out_of_rangePKc
00010d0c t _ZSt20__throw_system_errori
00011f44 t _ZSt20_Rb_tree_black_countPKSt18_Rb_tree_node_baseS1_
00011a5c t _ZSt20_Rb_tree_rotate_leftPSt18_Rb_tree_node_baseRS0_
00010738 t _ZSt21__throw_bad_exceptionv
00010ac0 t _ZSt21__throw_runtime_errorPKc
00011a60 t _ZSt21_Rb_tree_rotate_rightPSt18_Rb_tree_node_baseRS0_
00010bb0 t _ZSt22__throw_overflow_errorPKc
0000ea8e W _ZSt22__uninitialized_copy_aISt15_Deque_iteratorI2spI7ABufferERKS3_PS4_ES0_IS3_RS3_PS3_ES3_ET0_T_SC_SB_RSaIT1_E
00010c28 t _ZSt23__throw_underflow_errorPKc
00010958 t _ZSt24__throw_invalid_argumentPKc
00010e6c t _ZSt25__throw_bad_function_callv
00011bc0 t _ZSt28_Rb_tree_rebalance_for_erasePSt18_Rb_tree_node_baseRS_
00011a64 t _ZSt29_Rb_tree_insert_and_rebalancebPSt18_Rb_tree_node_baseS0_RS_
00026920 R _ZSt7nothrow
00016658 T _ZSt9terminatev
000118cc t _ZStL25local_Rb_tree_rotate_leftPSt18_Rb_tree_node_baseRS0_
00011918 t _ZStL26local_Rb_tree_rotate_rightPSt18_Rb_tree_node_baseRS0_
0001426c t _ZStplIcSt11char_traitsIcESaIcEESbIT_T0_T1_EPKS3_RKS6_
00014344 t _ZStplIcSt11char_traitsIcESaIcEESbIT_T0_T1_ERKS6_S8_
000142e0 t _ZStplIcSt11char_traitsIcESaIcEESbIT_T0_T1_ES3_RKS6_
00028a40 V _ZTIa
00028b08 V _ZTIb
00028a68 V _ZTIc
00028888 V _ZTId
00028810 V _ZTIDd
000287e8 V _ZTIDe
00028838 V _ZTIDf
00028a90 V _ZTIDi
000287c0 V _ZTIDn
00028ab8 V _ZTIDs
00028860 V _ZTIe
000288b0 V _ZTIf
00028a18 V _ZTIh
000289a0 V _ZTIi
00028978 V _ZTIj
00028950 V _ZTIl
00028928 V _ZTIm
00028714 D _ZTIN10__cxxabiv115__forced_unwindE
000286b8 D _ZTIN10__cxxabiv117__class_type_infoE
00028c28 D _ZTIN10__cxxabiv117__pbase_type_infoE
0002874c D _ZTIN10__cxxabiv119__foreign_exceptionE
00028b64 D _ZTIN10__cxxabiv119__pointer_type_infoE
00028bc8 D _ZTIN10__cxxabiv120__si_class_type_infoE
00028b58 D _ZTIN10__cxxabiv123__fundamental_type_infoE
000285d0 d _ZTIN12_GLOBAL__N_121future_error_categoryE
000284cc d _ZTIN12_GLOBAL__N_121system_error_categoryE
000284d8 d _ZTIN12_GLOBAL__N_122generic_error_categoryE
000286e0 d _ZTIN9__gnu_cxx24__concurrence_lock_errorE
00028708 d _ZTIN9__gnu_cxx26__concurrence_unlock_errorE
00028378 d _ZTINSt8ios_base7failureE
00028a30 V _ZTIPa
00028af8 V _ZTIPb
00028a58 V _ZTIPc
00028878 V _ZTIPd
00028800 V _ZTIPDd
000287d8 V _ZTIPDe
00028828 V _ZTIPDf
00028a80 V _ZTIPDi
000287b0 V _ZTIPDn
00028aa8 V _ZTIPDs
00028850 V _ZTIPe
000288a0 V _ZTIPf
00028a08 V _ZTIPh
00028990 V _ZTIPi
00028968 V _ZTIPj
00028a20 V _ZTIPKa
00028ae8 V _ZTIPKb
00028a48 V _ZTIPKc
00028868 V _ZTIPKd
000287f0 V _ZTIPKDd
000287c8 V _ZTIPKDe
00028818 V _ZTIPKDf
00028a70 V _ZTIPKDi
000287a0 V _ZTIPKDn
00028a98 V _ZTIPKDs
00028840 V _ZTIPKe
00028890 V _ZTIPKf
000289f8 V _ZTIPKh
00028980 V _ZTIPKi
00028958 V _ZTIPKj
00028930 V _ZTIPKl
00028908 V _ZTIPKm
000289d0 V _ZTIPKs
000289a8 V _ZTIPKt
00028b10 V _ZTIPKv
00028ac0 V _ZTIPKw
000288e0 V _ZTIPKx
000288b8 V _ZTIPKy
00028940 V _ZTIPl
00028918 V _ZTIPm
000289e0 V _ZTIPs
000289b8 V _ZTIPt
00028b20 V _ZTIPv
00028ad0 V _ZTIPw
000288f0 V _ZTIPx
000288c8 V _ZTIPy
000289f0 V _ZTIs
00028678 D _ZTISt10bad_typeid
000283fc d _ZTISt11logic_error
00028438 d _ZTISt11range_error
00028590 d _ZTISt11regex_error
00028420 d _ZTISt12domain_error
000285dc d _ZTISt12future_error
00028450 d _ZTISt12length_error
0002842c d _ZTISt12out_of_range
00028528 d _ZTISt12system_error
00028740 D _ZTISt13bad_exception
000284c0 d _ZTISt13runtime_error
00028560 d _ZTISt14error_category
000283f0 d _ZTISt14overflow_error
00028444 d _ZTISt15underflow_error
00028384 d _ZTISt16invalid_argument
00028338 d _ZTISt17bad_function_call
00028638 D _ZTISt8bad_cast
00028610 D _ZTISt9bad_alloc
0002871c D _ZTISt9exception
00028bf8 d _ZTISt9type_info
000289c8 V _ZTIt
00028b30 V _ZTIv
00028ae0 V _ZTIw
00028900 V _ZTIx
000288d8 V _ZTIy
000267c0 V _ZTSa
0002677c V _ZTSb
000267b4 V _ZTSc
00026844 V _ZTSd
0002686c V _ZTSDd
0002687c V _ZTSDe
0002685c V _ZTSDf
000267a4 V _ZTSDi
0002688c V _ZTSDn
00026794 V _ZTSDs
00026850 V _ZTSe
00026838 V _ZTSf
000267cc V _ZTSh
000267f0 V _ZTSi
000267fc V _ZTSj
00026808 V _ZTSl
00026814 V _ZTSm
00026708 R _ZTSN10__cxxabiv115__forced_unwindE
00026690 R _ZTSN10__cxxabiv117__class_type_infoE
00026924 R _ZTSN10__cxxabiv117__pbase_type_infoE
00026728 R _ZTSN10__cxxabiv119__foreign_exceptionE
000268c4 R _ZTSN10__cxxabiv119__pointer_type_infoE
000268e8 R _ZTSN10__cxxabiv120__si_class_type_infoE
0002689c R _ZTSN10__cxxabiv123__fundamental_type_infoE
0002662c r _ZTSN12_GLOBAL__N_121future_error_categoryE
000265c8 r _ZTSN12_GLOBAL__N_121system_error_categoryE
00026588 r _ZTSN12_GLOBAL__N_122generic_error_categoryE
000266b4 r _ZTSN9__gnu_cxx24__concurrence_lock_errorE
000266dc r _ZTSN9__gnu_cxx26__concurrence_unlock_errorE
000264c0 r _ZTSNSt8ios_base7failureE
000267c4 V _ZTSPa
00026780 V _ZTSPb
000267b8 V _ZTSPc
00026848 V _ZTSPd
00026870 V _ZTSPDd
00026880 V _ZTSPDe
00026860 V _ZTSPDf
000267a8 V _ZTSPDi
00026890 V _ZTSPDn
00026798 V _ZTSPDs
00026854 V _ZTSPe
0002683c V _ZTSPf
000267d0 V _ZTSPh
000267f4 V _ZTSPi
00026800 V _ZTSPj
000267c8 V _ZTSPKa
00026784 V _ZTSPKb
000267bc V _ZTSPKc
0002684c V _ZTSPKd
00026874 V _ZTSPKDd
00026884 V _ZTSPKDe
00026864 V _ZTSPKDf
000267ac V _ZTSPKDi
00026894 V _ZTSPKDn
0002679c V _ZTSPKDs
00026858 V _ZTSPKe
00026840 V _ZTSPKf
000267d4 V _ZTSPKh
000267f8 V _ZTSPKi
00026804 V _ZTSPKj
00026810 V _ZTSPKl
0002681c V _ZTSPKm
000267e0 V _ZTSPKs
000267ec V _ZTSPKt
00026778 V _ZTSPKv
00026790 V _ZTSPKw
00026828 V _ZTSPKx
00026834 V _ZTSPKy
0002680c V _ZTSPl
00026818 V _ZTSPm
000267dc V _ZTSPs
000267e8 V _ZTSPt
00026774 V _ZTSPv
0002678c V _ZTSPw
00026824 V _ZTSPx
00026830 V _ZTSPy
000267d8 V _ZTSs
00026680 R _ZTSSt10bad_typeid
00026518 r _ZTSSt11logic_error
00026528 r _ZTSSt11range_error
00026608 r _ZTSSt11regex_error
0002654c r _ZTSSt12domain_error
00026618 r _ZTSSt12future_error
00026560 r _ZTSSt12length_error
00026504 r _ZTSSt12out_of_range
000265f4 r _ZTSSt12system_error
0002675c R _ZTSSt13bad_exception
000264d8 r _ZTSSt13runtime_error
000265b4 r _ZTSSt14error_category
00026538 r _ZTSSt14overflow_error
00026574 r _ZTSSt15underflow_error
000264ec r _ZTSSt16invalid_argument
000264a8 r _ZTSSt17bad_function_call
00026674 R _ZTSSt8bad_cast
00026664 R _ZTSSt9bad_alloc
0002674c R _ZTSSt9exception
00026910 r _ZTSSt9type_info
000267e4 V _ZTSt
00026770 V _ZTSv
00026788 V _ZTSw
00026820 V _ZTSx
0002682c V _ZTSy
000282f8 D _ZTV13MyRTSPHandler
00028320 D _ZTV14ARTPConnection
000282e0 D _ZTV15ARTSPConnection
00028310 D _ZTV7ABuffer
000282b0 D _ZTV7ALooper
000282d0 V _ZTV8AHandler
000282c0 D _ZTV8AMessage
00028758 D _ZTVN10__cxxabiv115__forced_unwindE
00028688 D _ZTVN10__cxxabiv117__class_type_infoE
00028c00 D _ZTVN10__cxxabiv117__pbase_type_infoE
00028770 D _ZTVN10__cxxabiv119__foreign_exceptionE
00028b70 D _ZTVN10__cxxabiv119__pointer_type_infoE
00028b98 D _ZTVN10__cxxabiv120__si_class_type_infoE
00028b38 D _ZTVN10__cxxabiv123__fundamental_type_infoE
000285e8 d _ZTVN12_GLOBAL__N_121future_error_categoryE
00028568 d _ZTVN12_GLOBAL__N_121system_error_categoryE
00028538 d _ZTVN12_GLOBAL__N_122generic_error_categoryE
000286c8 d _ZTVN9__gnu_cxx24__concurrence_lock_errorE
000286f0 d _ZTVN9__gnu_cxx26__concurrence_unlock_errorE
00028360 d _ZTVNSt8ios_base7failureE
00028660 D _ZTVSt10bad_typeid
00028460 d _ZTVSt11logic_error
000284a8 d _ZTVSt11range_error
000285a0 d _ZTVSt11regex_error
000283d8 d _ZTVSt12domain_error
000285b8 d _ZTVSt12future_error
00028490 d _ZTVSt12length_error
00028478 d _ZTVSt12out_of_range
000284e8 d _ZTVSt12system_error
00028728 D _ZTVSt13bad_exception
00028390 d _ZTVSt13runtime_error
00028500 d _ZTVSt14error_category
000283a8 d _ZTVSt14overflow_error
000283c0 d _ZTVSt15underflow_error
00028408 d _ZTVSt16invalid_argument
00028348 d _ZTVSt17bad_function_call
00028648 D _ZTVSt8bad_cast
00028620 D _ZTVSt9bad_alloc
00028788 D _ZTVSt9exception
00028bd8 d _ZTVSt9type_info
00025747 r _ZZL12appendIndentP7AStringiE11kWhitespace
000296d8 b _ZZN12_GLOBAL__N_126__future_category_instanceEvE5__fec
000257f9 r _ZZN13MyRTSPHandler10NewSessionEPvE12__FUNCTION__
00025804 r _ZZN13MyRTSPHandler12ServerThreadEPvE12__FUNCTION__
000257b8 r _ZZN13MyRTSPHandler14isAuthenticateEPKcR7AStringS1_E12__FUNCTION__
000257d8 r _ZZN13MyRTSPHandler14onCloseSessionERK2spI8AMessageEE12__FUNCTION__
000257c7 r _ZZN13MyRTSPHandler16onReceiveRequestERK2spI8AMessageEE12__FUNCTION__
000257e7 r _ZZN13MyRTSPHandler17onMessageReceivedERK2spI8AMessageEE12__FUNCTION__
000257a0 r _ZZN13MyRTSPHandler9getDigestEPKcS1_P7AStringE12__FUNCTION__
000257aa r _ZZN13MyRTSPHandlerC1EvE12__FUNCTION__
000290b0 b _ZZN14ARTPConnection9RTPPacketE2spI7ABufferEE7sendbuf
0002e618 b _ZZN9__gnu_cxx27__verbose_terminate_handlerEvE11terminating
         U abort
         U accept
000296cc b adjustment.2910
0000a240 t atexit
         U atoi
         U bind
000296c0 b clock_seq.2914
         U close
         U connect
00027ca4 d cplus_demangle_builtin_types
00027f38 d cplus_demangle_operators
00017b78 t d_add_substitution
00017780 t d_append_char
0001a1b0 t d_append_string
00018868 t d_bare_function_type
00017ae4 t d_call_offset
00017468 t d_compact_number
00017364 t d_cv_qualifiers
0001df84 t d_demangle_callback.constprop.11
00018d9c t d_encoding
00019608 t d_expr_primary
00019724 t d_expression
00019c9c t d_exprlist
000177f4 t d_find_pack
00017bb0 t d_growable_string_callback_adapter
000170e4 t d_make_comp
00017280 t d_make_name
000194a0 t d_mangled_name
00019d40 t d_name
000172e8 t d_number
000188d8 t d_operator_name
00018774 t d_parmlist
0001da3c t d_print_array_type
0001dcd0 t d_print_cast.part.7
0001cc80 t d_print_comp
0001a258 t d_print_comp.part.6
0001cca0 t d_print_expr_op
0001d3f4 t d_print_function_type
0001cd5c t d_print_mod
0001d6ac t d_print_mod_list
0001dea4 t d_print_subexpr
000179f4 t d_source_name
0001753c t d_substitution
00019b64 t d_template_args
000174bc t d_template_param
00017c7c t d_type
00018a4c t d_unqualified_name
         U fclose
         U fcntl
         U fdopen
         U fflush
         U flock
         U fprintf
         U fputc
         U fputs
         U free
         U fscanf
         U ftruncate
         U fwrite
0001fe30 t get_eit_entry
         U getpid
         U getsockopt
         U gettimeofday
         U getuid
00029080 B gLooperRoster
000296b0 b has_init.2938
         U inet_addr
         U inet_ntoa
0000a9e0 W isprint
0000fea8 T Java_com_liuuu_ipcamera_IPCAM_helloWorld
0000fee4 T Java_com_liuuu_ipcamera_IPCAM_stringFromJNI
0000ff14 T JNI_OnLoad
000296c4 b last.2911
         U listen
         U lrand48
         U malloc
0000e704 T MD5_encode
         U memchr
         U memcmp
         U memcpy
         U memmove
         U memset
0002968c B mysource
00020d9c t next_unwind_byte
000296b4 b node_id.2937
         U open
0000e69c T our_MD5Final
0000e600 T our_MD5Init
0000e628 T ourMD5Update
00029030 D passwd
00029008 D ppset
         U pthread_cond_destroy
         U pthread_cond_init
         U pthread_cond_signal
         U pthread_cond_timedwait
         U pthread_cond_wait
         U pthread_create
         U pthread_getspecific
         U pthread_key_create
         U pthread_key_delete
         U pthread_mutex_destroy
         U pthread_mutex_init
         U pthread_mutex_lock
         U pthread_mutex_unlock
         U pthread_setspecific
         U raise
00010570 T random_get_bytes
000104e8 T random_get_fd
         U read
0002123c t read_encoded_value
         U realloc
00029028 D realm
         U recv
00020bf4 T restore_core_regs
00020004 t restore_non_core_regs
         U rewind
         U select
0001fe18 t selfrel_offset31
         U send
         U sendto
         U setsockopt
         U sleep
         U socket
         U sprintf
00029014 D spset
         U srand48
00027be0 d standard_subs
         U stat
000296bc b state_f.2913
00029074 d state_fd.2912
         U strcmp
         U strcpy
         U strdup
         U strerror
         U strlen
         U strncmp
         U strstr
         U strtoul
         U syscall
         U time
         U umask
00020184 t unwind_phase2
00020070 t unwind_phase2_forced
00029024 D uri
0002902c D user
         U usleep
0000ff6c T uuid_clear
0000ff78 T uuid_compare
0000ffd0 T uuid_copy
00010390 T uuid_generate
00010380 T uuid_generate_random
000102f0 T uuid_generate_time
000102fa T uuid_generate_time_safe
000103cc T uuid_is_null
000103e2 T uuid_pack
00010420 T uuid_parse
00010690 T uuid_time
000106f8 T uuid_type
000105ca T uuid_unpack
0001067c T uuid_unparse
0001065c T uuid_unparse_lower
0001066c T uuid_unparse_upper
00010612 t uuid_unparse_x
0001070a T uuid_variant
         U vasprintf
         U write
